target datalayout = "e-m:e-p270:32:32-p271:32:32-p272:64:64-i64:64-i128:128-f80:128-n8:16:32:64-S128"
target triple = "x86_64-pc-linux-gnu"

%struct.Res6_Man_t_ = type { i32, i32, i32, i32, i32, i32, %struct.Vec_Wrd_t_, %struct.Vec_Wrd_t_, ptr, ptr, %struct.Vec_Int_t_, %struct.Vec_Int_t_, %struct.Vec_Int_t_, %struct.Vec_Int_t_ }
%struct.Vec_Wrd_t_ = type { i32, i32, ptr }
%struct.Vec_Int_t_ = type { i32, i32, ptr }

@.str.9 = private unnamed_addr constant [51 x i8] c"Problem:   In = %d  Div = %d  Out  = %d  Pat = %d\0A\00", align 1
@.str.10 = private unnamed_addr constant [11 x i8] c"%02d : %s\0A\00", align 1
@.str.11 = private unnamed_addr constant [7 x i8] c"const0\00", align 1
@.str.12 = private unnamed_addr constant [7 x i8] c"const1\00", align 1
@.str.13 = private unnamed_addr constant [8 x i8] c"%02d : \00", align 1
@.str.14 = private unnamed_addr constant [2 x i8] c"\0A\00", align 1

; Function Attrs: inlinehint nounwind uwtable
define internal i64 @Abc_Tt6Stretch(i64 noundef %0, i32 noundef %1) #2 {
  %3 = alloca i64, align 8
  %4 = alloca i32, align 4
  store i64 %0, ptr %3, align 8, !tbaa !48
  store i32 %1, ptr %4, align 4, !tbaa !19
  %5 = load i32, ptr %4, align 4, !tbaa !19
  %6 = icmp eq i32 %5, 0
  br i1 %6, label %7, label %16

7:                                                ; preds = %2
  %8 = load i32, ptr %4, align 4, !tbaa !19
  %9 = add nsw i32 %8, 1
  store i32 %9, ptr %4, align 4, !tbaa !19
  %10 = load i64, ptr %3, align 8, !tbaa !48
  %11 = and i64 %10, 1
  %12 = load i64, ptr %3, align 8, !tbaa !48
  %13 = and i64 %12, 1
  %14 = shl i64 %13, 1
  %15 = or i64 %11, %14
  store i64 %15, ptr %3, align 8, !tbaa !48
  br label %16

16:                                               ; preds = %7, %2
  %17 = load i32, ptr %4, align 4, !tbaa !19
  %18 = icmp eq i32 %17, 1
  br i1 %18, label %19, label %28

19:                                               ; preds = %16
  %20 = load i32, ptr %4, align 4, !tbaa !19
  %21 = add nsw i32 %20, 1
  store i32 %21, ptr %4, align 4, !tbaa !19
  %22 = load i64, ptr %3, align 8, !tbaa !48
  %23 = and i64 %22, 3
  %24 = load i64, ptr %3, align 8, !tbaa !48
  %25 = and i64 %24, 3
  %26 = shl i64 %25, 2
  %27 = or i64 %23, %26
  store i64 %27, ptr %3, align 8, !tbaa !48
  br label %28

28:                                               ; preds = %19, %16
  %29 = load i32, ptr %4, align 4, !tbaa !19
  %30 = icmp eq i32 %29, 2
  br i1 %30, label %31, label %40

31:                                               ; preds = %28
  %32 = load i32, ptr %4, align 4, !tbaa !19
  %33 = add nsw i32 %32, 1
  store i32 %33, ptr %4, align 4, !tbaa !19
  %34 = load i64, ptr %3, align 8, !tbaa !48
  %35 = and i64 %34, 15
  %36 = load i64, ptr %3, align 8, !tbaa !48
  %37 = and i64 %36, 15
  %38 = shl i64 %37, 4
  %39 = or i64 %35, %38
  store i64 %39, ptr %3, align 8, !tbaa !48
  br label %40

40:                                               ; preds = %31, %28
  %41 = load i32, ptr %4, align 4, !tbaa !19
  %42 = icmp eq i32 %41, 3
  br i1 %42, label %43, label %52

43:                                               ; preds = %40
  %44 = load i32, ptr %4, align 4, !tbaa !19
  %45 = add nsw i32 %44, 1
  store i32 %45, ptr %4, align 4, !tbaa !19
  %46 = load i64, ptr %3, align 8, !tbaa !48
  %47 = and i64 %46, 255
  %48 = load i64, ptr %3, align 8, !tbaa !48
  %49 = and i64 %48, 255
  %50 = shl i64 %49, 8
  %51 = or i64 %47, %50
  store i64 %51, ptr %3, align 8, !tbaa !48
  br label %52

52:                                               ; preds = %43, %40
  %53 = load i32, ptr %4, align 4, !tbaa !19
  %54 = icmp eq i32 %53, 4
  br i1 %54, label %55, label %64

55:                                               ; preds = %52
  %56 = load i32, ptr %4, align 4, !tbaa !19
  %57 = add nsw i32 %56, 1
  store i32 %57, ptr %4, align 4, !tbaa !19
  %58 = load i64, ptr %3, align 8, !tbaa !48
  %59 = and i64 %58, 65535
  %60 = load i64, ptr %3, align 8, !tbaa !48
  %61 = and i64 %60, 65535
  %62 = shl i64 %61, 16
  %63 = or i64 %59, %62
  store i64 %63, ptr %3, align 8, !tbaa !48
  br label %64

64:                                               ; preds = %55, %52
  %65 = load i32, ptr %4, align 4, !tbaa !19
  %66 = icmp eq i32 %65, 5
  br i1 %66, label %67, label %76

67:                                               ; preds = %64
  %68 = load i32, ptr %4, align 4, !tbaa !19
  %69 = add nsw i32 %68, 1
  store i32 %69, ptr %4, align 4, !tbaa !19
  %70 = load i64, ptr %3, align 8, !tbaa !48
  %71 = and i64 %70, 4294967295
  %72 = load i64, ptr %3, align 8, !tbaa !48
  %73 = and i64 %72, 4294967295
  %74 = shl i64 %73, 32
  %75 = or i64 %71, %74
  store i64 %75, ptr %3, align 8, !tbaa !48
  br label %76

76:                                               ; preds = %67, %64
  %77 = load i64, ptr %3, align 8, !tbaa !48
  ret i64 %77
}

; Function Attrs: nounwind uwtable
define void @Res6_ManPrintProblem(ptr noundef %0, i32 noundef %1) #0 {
  %3 = alloca ptr, align 8
  %4 = alloca i32, align 4
  %5 = alloca i32, align 4
  %6 = alloca i32, align 4
  %7 = alloca i32, align 4
  store ptr %0, ptr %3, align 8, !tbaa !17
  store i32 %1, ptr %4, align 4, !tbaa !19
  call void @llvm.lifetime.start.p0(i64 4, ptr %5) #11
  call void @llvm.lifetime.start.p0(i64 4, ptr %6) #11
  %8 = load ptr, ptr %3, align 8, !tbaa !17
  %9 = getelementptr inbounds nuw %struct.Res6_Man_t_, ptr %8, i32 0, i32 0
  %10 = load i32, ptr %9, align 8, !tbaa !42
  %11 = icmp ne i32 %10, 0
  br i1 %11, label %12, label %21

12:                                               ; preds = %2
  %13 = load ptr, ptr %3, align 8, !tbaa !17
  %14 = getelementptr inbounds nuw %struct.Res6_Man_t_, ptr %13, i32 0, i32 0
  %15 = load i32, ptr %14, align 8, !tbaa !42
  %16 = icmp slt i32 %15, 6
  br i1 %16, label %17, label %21

17:                                               ; preds = %12
  %18 = load ptr, ptr %3, align 8, !tbaa !17
  %19 = getelementptr inbounds nuw %struct.Res6_Man_t_, ptr %18, i32 0, i32 0
  %20 = load i32, ptr %19, align 8, !tbaa !42
  br label %22

21:                                               ; preds = %12, %2
  br label %22

22:                                               ; preds = %21, %17
  %23 = phi i32 [ %20, %17 ], [ 6, %21 ]
  store i32 %23, ptr %6, align 4, !tbaa !19
  %24 = load ptr, ptr %3, align 8, !tbaa !17
  %25 = getelementptr inbounds nuw %struct.Res6_Man_t_, ptr %24, i32 0, i32 0
  %26 = load i32, ptr %25, align 8, !tbaa !42
  %27 = load ptr, ptr %3, align 8, !tbaa !17
  %28 = getelementptr inbounds nuw %struct.Res6_Man_t_, ptr %27, i32 0, i32 1
  %29 = load i32, ptr %28, align 4, !tbaa !20
  %30 = load ptr, ptr %3, align 8, !tbaa !17
  %31 = getelementptr inbounds nuw %struct.Res6_Man_t_, ptr %30, i32 0, i32 0
  %32 = load i32, ptr %31, align 8, !tbaa !42
  %33 = sub nsw i32 %29, %32
  %34 = sub nsw i32 %33, 1
  %35 = load ptr, ptr %3, align 8, !tbaa !17
  %36 = getelementptr inbounds nuw %struct.Res6_Man_t_, ptr %35, i32 0, i32 3
  %37 = load i32, ptr %36, align 4, !tbaa !34
  %38 = load ptr, ptr %3, align 8, !tbaa !17
  %39 = getelementptr inbounds nuw %struct.Res6_Man_t_, ptr %38, i32 0, i32 4
  %40 = load i32, ptr %39, align 8, !tbaa !44
  %41 = call i32 (ptr, ...) @printf(ptr noundef @.str.9, i32 noundef %26, i32 noundef %34, i32 noundef %37, i32 noundef %40)
  %42 = load i32, ptr %4, align 4, !tbaa !19
  %43 = icmp ne i32 %42, 0
  br i1 %43, label %45, label %44

44:                                               ; preds = %22
  store i32 1, ptr %7, align 4
  br label %179

45:                                               ; preds = %22
  %46 = call i32 (ptr, ...) @printf(ptr noundef @.str.10, i32 noundef 0, ptr noundef @.str.11)
  %47 = call i32 (ptr, ...) @printf(ptr noundef @.str.10, i32 noundef 1, ptr noundef @.str.12)
  store i32 1, ptr %5, align 4, !tbaa !19
  br label %48

48:                                               ; preds = %131, %45
  %49 = load i32, ptr %5, align 4, !tbaa !19
  %50 = load ptr, ptr %3, align 8, !tbaa !17
  %51 = getelementptr inbounds nuw %struct.Res6_Man_t_, ptr %50, i32 0, i32 1
  %52 = load i32, ptr %51, align 4, !tbaa !20
  %53 = icmp slt i32 %49, %52
  br i1 %53, label %54, label %134

54:                                               ; preds = %48
  %55 = load i32, ptr %6, align 4, !tbaa !19
  %56 = icmp slt i32 %55, 6
  br i1 %56, label %57, label %100

57:                                               ; preds = %54
  %58 = load ptr, ptr %3, align 8, !tbaa !17
  %59 = getelementptr inbounds nuw %struct.Res6_Man_t_, ptr %58, i32 0, i32 8
  %60 = load ptr, ptr %59, align 8, !tbaa !27
  %61 = load i32, ptr %5, align 4, !tbaa !19
  %62 = mul nsw i32 2, %61
  %63 = add nsw i32 %62, 0
  %64 = sext i32 %63 to i64
  %65 = getelementptr inbounds ptr, ptr %60, i64 %64
  %66 = load ptr, ptr %65, align 8, !tbaa !28
  %67 = load i64, ptr %66, align 8, !tbaa !48
  %68 = load i32, ptr %6, align 4, !tbaa !19
  %69 = call i64 @Abc_Tt6Stretch(i64 noundef %67, i32 noundef %68)
  %70 = load ptr, ptr %3, align 8, !tbaa !17
  %71 = getelementptr inbounds nuw %struct.Res6_Man_t_, ptr %70, i32 0, i32 8
  %72 = load ptr, ptr %71, align 8, !tbaa !27
  %73 = load i32, ptr %5, align 4, !tbaa !19
  %74 = mul nsw i32 2, %73
  %75 = add nsw i32 %74, 0
  %76 = sext i32 %75 to i64
  %77 = getelementptr inbounds ptr, ptr %72, i64 %76
  %78 = load ptr, ptr %77, align 8, !tbaa !28
  store i64 %69, ptr %78, align 8, !tbaa !48
  %79 = load ptr, ptr %3, align 8, !tbaa !17
  %80 = getelementptr inbounds nuw %struct.Res6_Man_t_, ptr %79, i32 0, i32 8
  %81 = load ptr, ptr %80, align 8, !tbaa !27
  %82 = load i32, ptr %5, align 4, !tbaa !19
  %83 = mul nsw i32 2, %82
  %84 = add nsw i32 %83, 1
  %85 = sext i32 %84 to i64
  %86 = getelementptr inbounds ptr, ptr %81, i64 %85
  %87 = load ptr, ptr %86, align 8, !tbaa !28
  %88 = load i64, ptr %87, align 8, !tbaa !48
  %89 = load i32, ptr %6, align 4, !tbaa !19
  %90 = call i64 @Abc_Tt6Stretch(i64 noundef %88, i32 noundef %89)
  %91 = load ptr, ptr %3, align 8, !tbaa !17
  %92 = getelementptr inbounds nuw %struct.Res6_Man_t_, ptr %91, i32 0, i32 8
  %93 = load ptr, ptr %92, align 8, !tbaa !27
  %94 = load i32, ptr %5, align 4, !tbaa !19
  %95 = mul nsw i32 2, %94
  %96 = add nsw i32 %95, 1
  %97 = sext i32 %96 to i64
  %98 = getelementptr inbounds ptr, ptr %93, i64 %97
  %99 = load ptr, ptr %98, align 8, !tbaa !28
  store i64 %90, ptr %99, align 8, !tbaa !48
  br label %100

100:                                              ; preds = %57, %54
  %101 = load i32, ptr %5, align 4, !tbaa !19
  %102 = mul nsw i32 2, %101
  %103 = add nsw i32 %102, 0
  %104 = call i32 (ptr, ...) @printf(ptr noundef @.str.13, i32 noundef %103)
  %105 = load ptr, ptr %3, align 8, !tbaa !17
  %106 = getelementptr inbounds nuw %struct.Res6_Man_t_, ptr %105, i32 0, i32 8
  %107 = load ptr, ptr %106, align 8, !tbaa !27
  %108 = load i32, ptr %5, align 4, !tbaa !19
  %109 = mul nsw i32 2, %108
  %110 = add nsw i32 %109, 0
  %111 = sext i32 %110 to i64
  %112 = getelementptr inbounds ptr, ptr %107, i64 %111
  %113 = load ptr, ptr %112, align 8, !tbaa !28
  %114 = load i32, ptr %6, align 4, !tbaa !19
  call void @Dau_DsdPrintFromTruth2(ptr noundef %113, i32 noundef %114)
  %115 = call i32 (ptr, ...) @printf(ptr noundef @.str.14)
  %116 = load i32, ptr %5, align 4, !tbaa !19
  %117 = mul nsw i32 2, %116
  %118 = add nsw i32 %117, 1
  %119 = call i32 (ptr, ...) @printf(ptr noundef @.str.13, i32 noundef %118)
  %120 = load ptr, ptr %3, align 8, !tbaa !17
  %121 = getelementptr inbounds nuw %struct.Res6_Man_t_, ptr %120, i32 0, i32 8
  %122 = load ptr, ptr %121, align 8, !tbaa !27
  %123 = load i32, ptr %5, align 4, !tbaa !19
  %124 = mul nsw i32 2, %123
  %125 = add nsw i32 %124, 1
  %126 = sext i32 %125 to i64
  %127 = getelementptr inbounds ptr, ptr %122, i64 %126
  %128 = load ptr, ptr %127, align 8, !tbaa !28
  %129 = load i32, ptr %6, align 4, !tbaa !19
  call void @Dau_DsdPrintFromTruth2(ptr noundef %128, i32 noundef %129)
  %130 = call i32 (ptr, ...) @printf(ptr noundef @.str.14)
  br label %131

131:                                              ; preds = %100
  %132 = load i32, ptr %5, align 4, !tbaa !19
  %133 = add nsw i32 %132, 1
  store i32 %133, ptr %5, align 4, !tbaa !19
  br label %48, !llvm.loop !69

134:                                              ; preds = %48
  store i32 0, ptr %5, align 4, !tbaa !19
  br label %135

135:                                              ; preds = %175, %134
  %136 = load i32, ptr %5, align 4, !tbaa !19
  %137 = load ptr, ptr %3, align 8, !tbaa !17
  %138 = getelementptr inbounds nuw %struct.Res6_Man_t_, ptr %137, i32 0, i32 3
  %139 = load i32, ptr %138, align 4, !tbaa !34
  %140 = shl i32 1, %139
  %141 = icmp slt i32 %136, %140
  br i1 %141, label %142, label %178

142:                                              ; preds = %135
  %143 = load i32, ptr %6, align 4, !tbaa !19
  %144 = icmp slt i32 %143, 6
  br i1 %144, label %145, label %163

145:                                              ; preds = %142
  %146 = load ptr, ptr %3, align 8, !tbaa !17
  %147 = getelementptr inbounds nuw %struct.Res6_Man_t_, ptr %146, i32 0, i32 9
  %148 = load ptr, ptr %147, align 8, !tbaa !35
  %149 = load i32, ptr %5, align 4, !tbaa !19
  %150 = sext i32 %149 to i64
  %151 = getelementptr inbounds ptr, ptr %148, i64 %150
  %152 = load ptr, ptr %151, align 8, !tbaa !28
  %153 = load i64, ptr %152, align 8, !tbaa !48
  %154 = load i32, ptr %6, align 4, !tbaa !19
  %155 = call i64 @Abc_Tt6Stretch(i64 noundef %153, i32 noundef %154)
  %156 = load ptr, ptr %3, align 8, !tbaa !17
  %157 = getelementptr inbounds nuw %struct.Res6_Man_t_, ptr %156, i32 0, i32 9
  %158 = load ptr, ptr %157, align 8, !tbaa !35
  %159 = load i32, ptr %5, align 4, !tbaa !19
  %160 = sext i32 %159 to i64
  %161 = getelementptr inbounds ptr, ptr %158, i64 %160
  %162 = load ptr, ptr %161, align 8, !tbaa !28
  store i64 %155, ptr %162, align 8, !tbaa !48
  br label %163

163:                                              ; preds = %145, %142
  %164 = load i32, ptr %5, align 4, !tbaa !19
  %165 = call i32 (ptr, ...) @printf(ptr noundef @.str.13, i32 noundef %164)
  %166 = load ptr, ptr %3, align 8, !tbaa !17
  %167 = getelementptr inbounds nuw %struct.Res6_Man_t_, ptr %166, i32 0, i32 9
  %168 = load ptr, ptr %167, align 8, !tbaa !35
  %169 = load i32, ptr %5, align 4, !tbaa !19
  %170 = sext i32 %169 to i64
  %171 = getelementptr inbounds ptr, ptr %168, i64 %170
  %172 = load ptr, ptr %171, align 8, !tbaa !28
  %173 = load i32, ptr %6, align 4, !tbaa !19
  call void @Dau_DsdPrintFromTruth2(ptr noundef %172, i32 noundef %173)
  %174 = call i32 (ptr, ...) @printf(ptr noundef @.str.14)
  br label %175

175:                                              ; preds = %163
  %176 = load i32, ptr %5, align 4, !tbaa !19
  %177 = add nsw i32 %176, 1
  store i32 %177, ptr %5, align 4, !tbaa !19
  br label %135, !llvm.loop !70

178:                                              ; preds = %135
  store i32 0, ptr %7, align 4
  br label %179

179:                                              ; preds = %178, %44
  call void @llvm.lifetime.end.p0(i64 4, ptr %6) #11
  call void @llvm.lifetime.end.p0(i64 4, ptr %5) #11
  %180 = load i32, ptr %7, align 4
  switch i32 %180, label %182 [
    i32 0, label %181
    i32 1, label %181
  ]

181:                                              ; preds = %179, %179
  ret void

182:                                              ; preds = %179
  unreachable
}