; Function Attrs: nounwind uwtable
define void @Res6_ManPrintProblem(ptr noundef readonly captures(none) %0, i32 noundef %1) local_unnamed_addr #0 {
  %3 = load i32, ptr %0, align 8, !tbaa !53
  %.not.not = icmp eq i32 %3, 0
  %4 = tail call i32 @llvm.smin.i32(i32 %3, i32 6)
  %5 = select i1 %.not.not, i32 6, i32 %4
  %6 = getelementptr inbounds nuw i8, ptr %0, i64 4
  %7 = load i32, ptr %6, align 4, !tbaa !37
  %8 = xor i32 %3, -1
  %9 = add i32 %7, %8
  %10 = getelementptr inbounds nuw i8, ptr %0, i64 12
  %11 = load i32, ptr %10, align 4, !tbaa !48
  %12 = getelementptr inbounds nuw i8, ptr %0, i64 16
  %13 = load i32, ptr %12, align 8, !tbaa !55
  %14 = tail call i32 (ptr, ...) @printf(ptr noundef nonnull dereferenceable(1) @.str.9, i32 noundef %3, i32 noundef %9, i32 noundef %11, i32 noundef %13)
  %.not46 = icmp eq i32 %1, 0
  br i1 %.not46, label %.loopexit, label %15

15:                                               ; preds = %2
  %16 = tail call i32 (ptr, ...) @printf(ptr noundef nonnull dereferenceable(1) @.str.10, i32 noundef 0, ptr noundef nonnull @.str.11)
  %17 = tail call i32 (ptr, ...) @printf(ptr noundef nonnull dereferenceable(1) @.str.10, i32 noundef 1, ptr noundef nonnull @.str.12)
  %18 = load i32, ptr %6, align 4, !tbaa !37
  %19 = icmp sgt i32 %18, 1
  br i1 %19, label %.lr.ph, label %.preheader

.lr.ph:                                           ; preds = %15
  %20 = icmp slt i32 %5, 6
  %21 = getelementptr inbounds nuw i8, ptr %0, i64 56
  %22 = icmp eq i32 %5, 1
  %.1.i = select i1 %22, i32 2, i32 %5
  %23 = icmp eq i32 %.1.i, 2
  %.2.i = select i1 %23, i32 3, i32 %.1.i
  %24 = icmp eq i32 %.2.i, 3
  %.3.i = select i1 %24, i32 4, i32 %.2.i
  %25 = icmp eq i32 %.3.i, 4
  %26 = and i32 %.3.i, -2
  %27 = icmp eq i32 %26, 4
  br label %73

.preheader:                                       ; preds = %104, %15
  %28 = load i32, ptr %10, align 4, !tbaa !48
  %.not = icmp eq i32 %28, 31
  br i1 %.not, label %.loopexit, label %.lr.ph67

.lr.ph67:                                         ; preds = %.preheader
  %29 = icmp slt i32 %5, 6
  %30 = getelementptr inbounds nuw i8, ptr %0, i64 64
  %31 = icmp eq i32 %5, 1
  %.1.i58 = select i1 %31, i32 2, i32 %5
  %32 = icmp eq i32 %.1.i58, 2
  %.2.i60 = select i1 %32, i32 3, i32 %.1.i58
  %33 = icmp eq i32 %.2.i60, 3
  %.3.i62 = select i1 %33, i32 4, i32 %.2.i60
  %34 = icmp eq i32 %.3.i62, 4
  %35 = and i32 %.3.i62, -2
  %36 = icmp eq i32 %35, 4
  br i1 %29, label %.lr.ph67.split.us, label %.lr.ph67.split

.lr.ph67.split.us:                                ; preds = %.lr.ph67
  br i1 %31, label %.lr.ph67.split.us.split.us.preheader, label %.lr.ph67.split.us.split

.lr.ph67.split.us.split.us.preheader:             ; preds = %.lr.ph67.split.us
  %.227.i59.us.us.v = select i1 %32, i64 85, i64 5
  %invariant.op = mul nuw nsw i64 %.227.i59.us.us.v, 257
  %.328.i61.us.us.v = select i1 %33, i64 %invariant.op, i64 %.227.i59.us.us.v
  %invariant.op88 = mul i64 %.328.i61.us.us.v, 65537
  br label %.lr.ph67.split.us.split.us

.lr.ph67.split.us.split.us:                       ; preds = %.lr.ph67.split.us.split.us.preheader, %.lr.ph67.split.us.split.us
  %indvars.iv77 = phi i64 [ 0, %.lr.ph67.split.us.split.us.preheader ], [ %indvars.iv.next78, %.lr.ph67.split.us.split.us ]
  %37 = load ptr, ptr %30, align 8, !tbaa !49
  %38 = getelementptr inbounds nuw ptr, ptr %37, i64 %indvars.iv77
  %39 = load ptr, ptr %38, align 8, !tbaa !41
  %40 = load i64, ptr %39, align 8, !tbaa !42
  %41 = and i64 %40, 3
  %.328.i61.us.us = mul nuw nsw i64 %41, %.328.i61.us.us.v
  %.reass = mul i64 %41, %invariant.op88
  %.429.i63.us.us = select i1 %34, i64 %.reass, i64 %.328.i61.us.us
  %42 = mul nuw i64 %.429.i63.us.us, 4294967297
  %.5.i64.us.us = select i1 %36, i64 %42, i64 %.429.i63.us.us
  store i64 %.5.i64.us.us, ptr %39, align 8, !tbaa !42
  %43 = trunc nuw nsw i64 %indvars.iv77 to i32
  %44 = tail call i32 (ptr, ...) @printf(ptr noundef nonnull dereferenceable(1) @.str.13, i32 noundef %43)
  %45 = load ptr, ptr %30, align 8, !tbaa !49
  %46 = getelementptr inbounds nuw ptr, ptr %45, i64 %indvars.iv77
  %47 = load ptr, ptr %46, align 8, !tbaa !41
  tail call void @Dau_DsdPrintFromTruth2(ptr noundef %47, i32 noundef 1) #21
  %putchar.us.us = tail call i32 @putchar(i32 10)
  %indvars.iv.next78 = add nuw nsw i64 %indvars.iv77, 1
  %48 = load i32, ptr %10, align 4, !tbaa !48
  %49 = shl nuw i32 1, %48
  %50 = sext i32 %49 to i64
  %51 = icmp slt i64 %indvars.iv.next78, %50
  br i1 %51, label %.lr.ph67.split.us.split.us, label %.loopexit, !llvm.loop !67

.lr.ph67.split.us.split:                          ; preds = %.lr.ph67.split.us, %.lr.ph67.split.us.split
  %indvars.iv74 = phi i64 [ %indvars.iv.next75, %.lr.ph67.split.us.split ], [ 0, %.lr.ph67.split.us ]
  %52 = load ptr, ptr %30, align 8, !tbaa !49
  %53 = getelementptr inbounds nuw ptr, ptr %52, i64 %indvars.iv74
  %54 = load ptr, ptr %53, align 8, !tbaa !41
  %55 = load i64, ptr %54, align 8, !tbaa !42
  %56 = and i64 %55, 15
  %57 = mul nuw nsw i64 %56, 17
  %.227.i59.us = select i1 %32, i64 %57, i64 %55
  %58 = and i64 %.227.i59.us, 255
  %59 = mul nuw nsw i64 %58, 257
  %.328.i61.us = select i1 %33, i64 %59, i64 %.227.i59.us
  %60 = and i64 %.328.i61.us, 65535
  %61 = mul nuw nsw i64 %60, 65537
  %.429.i63.us = select i1 %34, i64 %61, i64 %.328.i61.us
  %62 = and i64 %.429.i63.us, 4294967295
  %63 = mul nuw i64 %62, 4294967297
  %.5.i64.us = select i1 %36, i64 %63, i64 %.429.i63.us
  store i64 %.5.i64.us, ptr %54, align 8, !tbaa !42
  %64 = trunc nuw nsw i64 %indvars.iv74 to i32
  %65 = tail call i32 (ptr, ...) @printf(ptr noundef nonnull dereferenceable(1) @.str.13, i32 noundef %64)
  %66 = load ptr, ptr %30, align 8, !tbaa !49
  %67 = getelementptr inbounds nuw ptr, ptr %66, i64 %indvars.iv74
  %68 = load ptr, ptr %67, align 8, !tbaa !41
  tail call void @Dau_DsdPrintFromTruth2(ptr noundef %68, i32 noundef %5) #21
  %putchar.us = tail call i32 @putchar(i32 10)
  %indvars.iv.next75 = add nuw nsw i64 %indvars.iv74, 1
  %69 = load i32, ptr %10, align 4, !tbaa !48
  %70 = shl nuw i32 1, %69
  %71 = sext i32 %70 to i64
  %72 = icmp slt i64 %indvars.iv.next75, %71
  br i1 %72, label %.lr.ph67.split.us.split, label %.loopexit, !llvm.loop !67

73:                                               ; preds = %.lr.ph, %104
  %indvars.iv = phi i64 [ 1, %.lr.ph ], [ %indvars.iv.next, %104 ]
  br i1 %20, label %74, label %._crit_edge

._crit_edge:                                      ; preds = %73
  %.pre = shl nuw nsw i64 %indvars.iv, 1
  %.pre80 = or disjoint i64 %.pre, 1
  br label %104

74:                                               ; preds = %73
  %75 = load ptr, ptr %21, align 8, !tbaa !40
  %76 = shl nuw nsw i64 %indvars.iv, 1
  %77 = getelementptr inbounds nuw ptr, ptr %75, i64 %76
  %78 = load ptr, ptr %77, align 8, !tbaa !41
  %79 = load i64, ptr %78, align 8, !tbaa !42
  %80 = and i64 %79, 3
  %81 = mul nuw nsw i64 %80, 5
  %.126.i = select i1 %22, i64 %81, i64 %79
  %82 = and i64 %.126.i, 15
  %83 = mul nuw nsw i64 %82, 17
  %.227.i = select i1 %23, i64 %83, i64 %.126.i
  %84 = and i64 %.227.i, 255
  %85 = mul nuw nsw i64 %84, 257
  %.328.i = select i1 %24, i64 %85, i64 %.227.i
  %86 = and i64 %.328.i, 65535
  %87 = mul nuw nsw i64 %86, 65537
  %.429.i = select i1 %25, i64 %87, i64 %.328.i
  %88 = and i64 %.429.i, 4294967295
  %89 = mul nuw i64 %88, 4294967297
  %.5.i = select i1 %27, i64 %89, i64 %.429.i
  store i64 %.5.i, ptr %78, align 8, !tbaa !42
  %90 = or disjoint i64 %76, 1
  %91 = getelementptr inbounds nuw ptr, ptr %75, i64 %90
  %92 = load ptr, ptr %91, align 8, !tbaa !41
  %93 = load i64, ptr %92, align 8, !tbaa !42
  %94 = and i64 %93, 3
  %95 = mul nuw nsw i64 %94, 5
  %.126.i49 = select i1 %22, i64 %95, i64 %93
  %96 = and i64 %.126.i49, 15
  %97 = mul nuw nsw i64 %96, 17
  %.227.i51 = select i1 %23, i64 %97, i64 %.126.i49
  %98 = and i64 %.227.i51, 255
  %99 = mul nuw nsw i64 %98, 257
  %.328.i53 = select i1 %24, i64 %99, i64 %.227.i51
  %100 = and i64 %.328.i53, 65535
  %101 = mul nuw nsw i64 %100, 65537
  %.429.i55 = select i1 %25, i64 %101, i64 %.328.i53
  %102 = and i64 %.429.i55, 4294967295
  %103 = mul nuw i64 %102, 4294967297
  %.5.i56 = select i1 %27, i64 %103, i64 %.429.i55
  store i64 %.5.i56, ptr %92, align 8, !tbaa !42
  br label %104

104:                                              ; preds = %._crit_edge, %74
  %.pre-phi81 = phi i64 [ %.pre80, %._crit_edge ], [ %90, %74 ]
  %.pre-phi = phi i64 [ %.pre, %._crit_edge ], [ %76, %74 ]
  %105 = trunc nuw i64 %.pre-phi to i32
  %106 = tail call i32 (ptr, ...) @printf(ptr noundef nonnull dereferenceable(1) @.str.13, i32 noundef %105)
  %107 = load ptr, ptr %21, align 8, !tbaa !40
  %108 = getelementptr inbounds nuw ptr, ptr %107, i64 %.pre-phi
  %109 = load ptr, ptr %108, align 8, !tbaa !41
  tail call void @Dau_DsdPrintFromTruth2(ptr noundef %109, i32 noundef %5) #21
  %putchar47 = tail call i32 @putchar(i32 10)
  %110 = trunc nuw i64 %.pre-phi81 to i32
  %111 = tail call i32 (ptr, ...) @printf(ptr noundef nonnull dereferenceable(1) @.str.13, i32 noundef %110)
  %112 = load ptr, ptr %21, align 8, !tbaa !40
  %113 = getelementptr inbounds nuw ptr, ptr %112, i64 %.pre-phi81
  %114 = load ptr, ptr %113, align 8, !tbaa !41
  tail call void @Dau_DsdPrintFromTruth2(ptr noundef %114, i32 noundef %5) #21
  %putchar48 = tail call i32 @putchar(i32 10)
  %indvars.iv.next = add nuw nsw i64 %indvars.iv, 1
  %115 = load i32, ptr %6, align 4, !tbaa !37
  %116 = sext i32 %115 to i64
  %117 = icmp slt i64 %indvars.iv.next, %116
  br i1 %117, label %73, label %.preheader, !llvm.loop !68

.lr.ph67.split:                                   ; preds = %.lr.ph67, %.lr.ph67.split
  %indvars.iv71 = phi i64 [ %indvars.iv.next72, %.lr.ph67.split ], [ 0, %.lr.ph67 ]
  %118 = trunc nuw nsw i64 %indvars.iv71 to i32
  %119 = tail call i32 (ptr, ...) @printf(ptr noundef nonnull dereferenceable(1) @.str.13, i32 noundef %118)
  %120 = load ptr, ptr %30, align 8, !tbaa !49
  %121 = getelementptr inbounds nuw ptr, ptr %120, i64 %indvars.iv71
  %122 = load ptr, ptr %121, align 8, !tbaa !41
  tail call void @Dau_DsdPrintFromTruth2(ptr noundef %122, i32 noundef %5) #21
  %putchar = tail call i32 @putchar(i32 10)
  %indvars.iv.next72 = add nuw nsw i64 %indvars.iv71, 1
  %123 = load i32, ptr %10, align 4, !tbaa !48
  %124 = shl nuw i32 1, %123
  %125 = sext i32 %124 to i64
  %126 = icmp slt i64 %indvars.iv.next72, %125
  br i1 %126, label %.lr.ph67.split, label %.loopexit, !llvm.loop !67

.loopexit:                                        ; preds = %.lr.ph67.split, %.lr.ph67.split.us.split, %.lr.ph67.split.us.split.us, %.preheader, %2
  ret void
}